target datalayout = "e-m:e-p270:32:32-p271:32:32-p272:64:64-i64:64-i128:128-f80:128-n8:16:32:64-S128"
target triple = "x86_64-pc-linux-gnu"

%struct.SCPRContext = type { i32, ptr, ptr, %struct.GetByteContext, %struct.RangeCoder, [3 x [4096 x %struct.PixelModel]], [6 x [7 x i32]], [6 x [257 x i32]], [257 x i32], [257 x i32], [6 x i32], [4 x [17 x i32]], [2 x [513 x i32]], i32, i32, i32, ptr, i32, i32, [3 x [4096 x %struct.PixelModel3]], [6 x %struct.RunModel3], %struct.RunModel3, %struct.RunModel3, %struct.FillModel3, [4 x %struct.SxyModel3], [2 x %struct.MVModel3], [6 x %struct.OpModel3], ptr, ptr }
%struct.GetByteContext = type { ptr, ptr, ptr }
%struct.RangeCoder = type { i32, i32, i32 }
%struct.PixelModel = type { [256 x i32], [16 x i32], i32 }
%struct.PixelModel3 = type { i8, i8, i8, i8, i16, i32, [256 x i8], [256 x i16], [256 x i16], [256 x i16], [32 x i8] }
%struct.RunModel3 = type { i32, [2 x [256 x i16]], [256 x i16], [32 x i8] }
%struct.FillModel3 = type { i32, [2 x [5 x i16]], [5 x i16], [32 x i8] }
%struct.SxyModel3 = type { i32, [2 x [16 x i16]], [16 x i16], [32 x i8] }
%struct.MVModel3 = type { i32, [2 x [512 x i16]], [512 x i16], [32 x i8] }
%struct.OpModel3 = type { i32, [2 x [6 x i16]], [6 x i16], [32 x i8] }

; Function Attrs: nounwind uwtable
define internal i32 @decode_units3(ptr noundef %0, ptr noundef %1, ptr noundef %2, ptr noundef %3, ptr noundef %4, ptr noundef %5) #1 {
  %7 = alloca i32, align 4
  %8 = alloca ptr, align 8
  %9 = alloca ptr, align 8
  %10 = alloca ptr, align 8
  %11 = alloca ptr, align 8
  %12 = alloca ptr, align 8
  %13 = alloca ptr, align 8
  %14 = alloca ptr, align 8
  %15 = alloca i32, align 4
  %16 = alloca i32, align 4
  store ptr %0, ptr %8, align 8, !tbaa !29
  store ptr %1, ptr %9, align 8, !tbaa !52
  store ptr %2, ptr %10, align 8, !tbaa !52
  store ptr %3, ptr %11, align 8, !tbaa !52
  store ptr %4, ptr %12, align 8, !tbaa !52
  store ptr %5, ptr %13, align 8, !tbaa !52
  call void @llvm.lifetime.start.p0(i64 8, ptr %14) #9
  %17 = load ptr, ptr %8, align 8, !tbaa !29
  %18 = getelementptr inbounds nuw %struct.SCPRContext, ptr %17, i32 0, i32 4
  store ptr %18, ptr %14, align 8, !tbaa !80
  call void @llvm.lifetime.start.p0(i64 4, ptr %15) #9
  %19 = load ptr, ptr %8, align 8, !tbaa !29
  %20 = load ptr, ptr %8, align 8, !tbaa !29
  %21 = getelementptr inbounds nuw %struct.SCPRContext, ptr %20, i32 0, i32 19
  %22 = getelementptr inbounds [3 x [4096 x %struct.PixelModel3]], ptr %21, i64 0, i64 0
  %23 = load ptr, ptr %12, align 8, !tbaa !52
  %24 = load i32, ptr %23, align 4, !tbaa !57
  %25 = load ptr, ptr %13, align 8, !tbaa !52
  %26 = load i32, ptr %25, align 4, !tbaa !57
  %27 = add nsw i32 %24, %26
  %28 = sext i32 %27 to i64
  %29 = getelementptr inbounds [4096 x %struct.PixelModel3], ptr %22, i64 0, i64 %28
  %30 = load ptr, ptr %14, align 8, !tbaa !80
  %31 = getelementptr inbounds nuw %struct.RangeCoder, ptr %30, i32 0, i32 0
  %32 = load i32, ptr %31, align 4, !tbaa !83
  %33 = and i32 %32, 4095
  %34 = load ptr, ptr %9, align 8, !tbaa !52
  %35 = call i32 @decode_unit3(ptr noundef %19, ptr noundef %29, i32 noundef %33, ptr noundef %34)
  store i32 %35, ptr %15, align 4, !tbaa !57
  %36 = load i32, ptr %15, align 4, !tbaa !57
  %37 = icmp slt i32 %36, 0
  br i1 %37, label %38, label %40

38:                                               ; preds = %6
  %39 = load i32, ptr %15, align 4, !tbaa !57
  store i32 %39, ptr %7, align 4
  store i32 1, ptr %16, align 4
  br label %112

40:                                               ; preds = %6
  %41 = load ptr, ptr %12, align 8, !tbaa !52
  %42 = load i32, ptr %41, align 4, !tbaa !57
  %43 = shl i32 %42, 6
  %44 = and i32 %43, 4032
  %45 = load ptr, ptr %13, align 8, !tbaa !52
  store i32 %44, ptr %45, align 4, !tbaa !57
  %46 = load ptr, ptr %9, align 8, !tbaa !52
  %47 = load i32, ptr %46, align 4, !tbaa !57
  %48 = lshr i32 %47, 2
  %49 = load ptr, ptr %12, align 8, !tbaa !52
  store i32 %48, ptr %49, align 4, !tbaa !57
  %50 = load ptr, ptr %8, align 8, !tbaa !29
  %51 = load ptr, ptr %8, align 8, !tbaa !29
  %52 = getelementptr inbounds nuw %struct.SCPRContext, ptr %51, i32 0, i32 19
  %53 = getelementptr inbounds [3 x [4096 x %struct.PixelModel3]], ptr %52, i64 0, i64 1
  %54 = load ptr, ptr %12, align 8, !tbaa !52
  %55 = load i32, ptr %54, align 4, !tbaa !57
  %56 = load ptr, ptr %13, align 8, !tbaa !52
  %57 = load i32, ptr %56, align 4, !tbaa !57
  %58 = add nsw i32 %55, %57
  %59 = sext i32 %58 to i64
  %60 = getelementptr inbounds [4096 x %struct.PixelModel3], ptr %53, i64 0, i64 %59
  %61 = load ptr, ptr %14, align 8, !tbaa !80
  %62 = getelementptr inbounds nuw %struct.RangeCoder, ptr %61, i32 0, i32 0
  %63 = load i32, ptr %62, align 4, !tbaa !83
  %64 = and i32 %63, 4095
  %65 = load ptr, ptr %10, align 8, !tbaa !52
  %66 = call i32 @decode_unit3(ptr noundef %50, ptr noundef %60, i32 noundef %64, ptr noundef %65)
  store i32 %66, ptr %15, align 4, !tbaa !57
  %67 = load i32, ptr %15, align 4, !tbaa !57
  %68 = icmp slt i32 %67, 0
  br i1 %68, label %69, label %71

69:                                               ; preds = %40
  %70 = load i32, ptr %15, align 4, !tbaa !57
  store i32 %70, ptr %7, align 4
  store i32 1, ptr %16, align 4
  br label %112

71:                                               ; preds = %40
  %72 = load ptr, ptr %12, align 8, !tbaa !52
  %73 = load i32, ptr %72, align 4, !tbaa !57
  %74 = shl i32 %73, 6
  %75 = and i32 %74, 4032
  %76 = load ptr, ptr %13, align 8, !tbaa !52
  store i32 %75, ptr %76, align 4, !tbaa !57
  %77 = load ptr, ptr %10, align 8, !tbaa !52
  %78 = load i32, ptr %77, align 4, !tbaa !57
  %79 = lshr i32 %78, 2
  %80 = load ptr, ptr %12, align 8, !tbaa !52
  store i32 %79, ptr %80, align 4, !tbaa !57
  %81 = load ptr, ptr %8, align 8, !tbaa !29
  %82 = load ptr, ptr %8, align 8, !tbaa !29
  %83 = getelementptr inbounds nuw %struct.SCPRContext, ptr %82, i32 0, i32 19
  %84 = getelementptr inbounds [3 x [4096 x %struct.PixelModel3]], ptr %83, i64 0, i64 2
  %85 = load ptr, ptr %12, align 8, !tbaa !52
  %86 = load i32, ptr %85, align 4, !tbaa !57
  %87 = load ptr, ptr %13, align 8, !tbaa !52
  %88 = load i32, ptr %87, align 4, !tbaa !57
  %89 = add nsw i32 %86, %88
  %90 = sext i32 %89 to i64
  %91 = getelementptr inbounds [4096 x %struct.PixelModel3], ptr %84, i64 0, i64 %90
  %92 = load ptr, ptr %14, align 8, !tbaa !80
  %93 = getelementptr inbounds nuw %struct.RangeCoder, ptr %92, i32 0, i32 0
  %94 = load i32, ptr %93, align 4, !tbaa !83
  %95 = and i32 %94, 4095
  %96 = load ptr, ptr %11, align 8, !tbaa !52
  %97 = call i32 @decode_unit3(ptr noundef %81, ptr noundef %91, i32 noundef %95, ptr noundef %96)
  store i32 %97, ptr %15, align 4, !tbaa !57
  %98 = load i32, ptr %15, align 4, !tbaa !57
  %99 = icmp slt i32 %98, 0
  br i1 %99, label %100, label %102

100:                                              ; preds = %71
  %101 = load i32, ptr %15, align 4, !tbaa !57
  store i32 %101, ptr %7, align 4
  store i32 1, ptr %16, align 4
  br label %112

102:                                              ; preds = %71
  %103 = load ptr, ptr %12, align 8, !tbaa !52
  %104 = load i32, ptr %103, align 4, !tbaa !57
  %105 = shl i32 %104, 6
  %106 = and i32 %105, 4032
  %107 = load ptr, ptr %13, align 8, !tbaa !52
  store i32 %106, ptr %107, align 4, !tbaa !57
  %108 = load ptr, ptr %11, align 8, !tbaa !52
  %109 = load i32, ptr %108, align 4, !tbaa !57
  %110 = lshr i32 %109, 2
  %111 = load ptr, ptr %12, align 8, !tbaa !52
  store i32 %110, ptr %111, align 4, !tbaa !57
  store i32 0, ptr %7, align 4
  store i32 1, ptr %16, align 4
  br label %112

112:                                              ; preds = %102, %100, %69, %38
  call void @llvm.lifetime.end.p0(i64 4, ptr %15) #9
  call void @llvm.lifetime.end.p0(i64 8, ptr %14) #9
  %113 = load i32, ptr %7, align 4
  ret i32 %113
}