; Function Attrs: nofree norecurse nosync nounwind memory(readwrite, inaccessiblemem: none) uwtable
define internal fastcc range(i32 -1094995529, 1) i32 @decode_units3(ptr noundef %0, ptr noundef nonnull captures(none) %1, ptr noundef nonnull captures(none) %2, ptr noundef nonnull captures(none) %3, ptr noundef nonnull captures(none) %4, ptr noundef nonnull captures(none) %5) unnamed_addr #8 {
  %7 = getelementptr inbounds nuw i8, ptr %0, i64 48
  %8 = getelementptr inbounds nuw i8, ptr %0, i64 13431376
  %9 = load i32, ptr %4, align 4, !tbaa !61
  %10 = load i32, ptr %5, align 4, !tbaa !61
  %11 = add nsw i32 %10, %9
  %12 = sext i32 %11 to i64
  %13 = getelementptr inbounds [4096 x %struct.PixelModel3], ptr %8, i64 0, i64 %12
  %14 = load i32, ptr %7, align 4, !tbaa !62
  %15 = and i32 %14, 4095
  %16 = tail call fastcc i32 @decode_unit3(ptr noundef %0, ptr noundef nonnull %13, i32 noundef %15, ptr noundef %1)
  %17 = icmp slt i32 %16, 0
  br i1 %17, label %54, label %18

18:                                               ; preds = %6
  %19 = load i32, ptr %4, align 4, !tbaa !61
  %20 = shl i32 %19, 6
  %21 = and i32 %20, 4032
  store i32 %21, ptr %5, align 4, !tbaa !61
  %22 = load i32, ptr %1, align 4, !tbaa !61
  %23 = lshr i32 %22, 2
  store i32 %23, ptr %4, align 4, !tbaa !61
  %24 = getelementptr inbounds nuw i8, ptr %0, i64 20951632
  %25 = load i32, ptr %5, align 4, !tbaa !61
  %26 = add nsw i32 %25, %23
  %27 = sext i32 %26 to i64
  %28 = getelementptr inbounds [4096 x %struct.PixelModel3], ptr %24, i64 0, i64 %27
  %29 = load i32, ptr %7, align 4, !tbaa !62
  %30 = and i32 %29, 4095
  %31 = tail call fastcc i32 @decode_unit3(ptr noundef nonnull %0, ptr noundef nonnull %28, i32 noundef %30, ptr noundef %2)
  %32 = icmp slt i32 %31, 0
  br i1 %32, label %54, label %33

33:                                               ; preds = %18
  %34 = load i32, ptr %4, align 4, !tbaa !61
  %35 = shl i32 %34, 6
  %36 = and i32 %35, 4032
  store i32 %36, ptr %5, align 4, !tbaa !61
  %37 = load i32, ptr %2, align 4, !tbaa !61
  %38 = lshr i32 %37, 2
  store i32 %38, ptr %4, align 4, !tbaa !61
  %39 = getelementptr inbounds nuw i8, ptr %0, i64 28471888
  %40 = load i32, ptr %5, align 4, !tbaa !61
  %41 = add nsw i32 %40, %38
  %42 = sext i32 %41 to i64
  %43 = getelementptr inbounds [4096 x %struct.PixelModel3], ptr %39, i64 0, i64 %42
  %44 = load i32, ptr %7, align 4, !tbaa !62
  %45 = and i32 %44, 4095
  %46 = tail call fastcc i32 @decode_unit3(ptr noundef nonnull %0, ptr noundef nonnull %43, i32 noundef %45, ptr noundef %3)
  %47 = icmp slt i32 %46, 0
  br i1 %47, label %54, label %48

48:                                               ; preds = %33
  %49 = load i32, ptr %4, align 4, !tbaa !61
  %50 = shl i32 %49, 6
  %51 = and i32 %50, 4032
  store i32 %51, ptr %5, align 4, !tbaa !61
  %52 = load i32, ptr %3, align 4, !tbaa !61
  %53 = lshr i32 %52, 2
  store i32 %53, ptr %4, align 4, !tbaa !61
  br label %54

54:                                               ; preds = %33, %18, %6, %48
  %.0 = phi i32 [ 0, %48 ], [ %16, %6 ], [ %31, %18 ], [ %46, %33 ]
  ret i32 %.0
}